; ModuleID = '58/43.c'
source_filename = "58/43.c"
target datalayout = "e-m:e-p270:32:32-p271:32:32-p272:64:64-i64:64-f80:128-n8:16:32:64-S128"
target triple = "x86_64-pc-linux-gnu"

@.str = private unnamed_addr constant [4 x i8] c"%d\0A\00", align 1

; Function Attrs: noinline nounwind uwtable
define dso_local void @main() #0 {
  %1 = alloca i32, align 4
  %2 = alloca i32, align 4
  %3 = alloca i8*, align 8
  %4 = alloca i32, align 4
  %5 = alloca i32, align 4
  %6 = alloca i32, align 4
  %7 = call i32 (i8*, ...) @__isoc99_scanf(i8* getelementptr inbounds ([4 x i8], [4 x i8]* @.str, i64 0, i64 0), i32* %1)
  store i32 1, i32* %2, align 4
  br label %8

8:                                                ; preds = %271, %0
  %9 = load i32, i32* %2, align 4
  %10 = load i32, i32* %1, align 4
  %11 = icmp sle i32 %9, %10
  br i1 %11, label %12, label %274

12:                                               ; preds = %8
  %13 = call noalias i8* @malloc(i64 100) #4
  store i8* %13, i8** %3, align 8
  %14 = load i8*, i8** %3, align 8
  %15 = call i32 (i8*, ...) bitcast (i32 (...)* @gets to i32 (i8*, ...)*)(i8* %14)
  %16 = load i8*, i8** %3, align 8
  %17 = call i64 @strlen(i8* %16) #5
  %18 = trunc i64 %17 to i32
  store i32 %18, i32* %4, align 4
  store i32 0, i32* %5, align 4
  %19 = load i8*, i8** %3, align 8
  %20 = load i8, i8* %19, align 1
  %21 = sext i8 %20 to i32
  %22 = icmp eq i32 %21, 95
  br i1 %22, label %23, label %97

23:                                               ; preds = %12
  store i32 1, i32* %5, align 4
  store i32 1, i32* %6, align 4
  br label %24

24:                                               ; preds = %93, %23
  %25 = load i32, i32* %6, align 4
  %26 = load i32, i32* %4, align 4
  %27 = icmp slt i32 %25, %26
  br i1 %27, label %28, label %96

28:                                               ; preds = %24
  %29 = load i8*, i8** %3, align 8
  %30 = load i32, i32* %6, align 4
  %31 = sext i32 %30 to i64
  %32 = getelementptr inbounds i8, i8* %29, i64 %31
  %33 = load i8, i8* %32, align 1
  %34 = sext i8 %33 to i32
  %35 = icmp eq i32 %34, 95
  br i1 %35, label %36, label %37

36:                                               ; preds = %28
  store i32 1, i32* %5, align 4
  br label %92

37:                                               ; preds = %28
  %38 = load i8*, i8** %3, align 8
  %39 = load i32, i32* %6, align 4
  %40 = sext i32 %39 to i64
  %41 = getelementptr inbounds i8, i8* %38, i64 %40
  %42 = load i8, i8* %41, align 1
  %43 = sext i8 %42 to i32
  %44 = icmp sle i32 %43, 122
  br i1 %44, label %45, label %54

45:                                               ; preds = %37
  %46 = load i8*, i8** %3, align 8
  %47 = load i32, i32* %6, align 4
  %48 = sext i32 %47 to i64
  %49 = getelementptr inbounds i8, i8* %46, i64 %48
  %50 = load i8, i8* %49, align 1
  %51 = sext i8 %50 to i32
  %52 = icmp sge i32 %51, 97
  br i1 %52, label %53, label %54

53:                                               ; preds = %45
  store i32 1, i32* %5, align 4
  br label %91

54:                                               ; preds = %45, %37
  %55 = load i8*, i8** %3, align 8
  %56 = load i32, i32* %6, align 4
  %57 = sext i32 %56 to i64
  %58 = getelementptr inbounds i8, i8* %55, i64 %57
  %59 = load i8, i8* %58, align 1
  %60 = sext i8 %59 to i32
  %61 = icmp sle i32 %60, 90
  br i1 %61, label %62, label %71

62:                                               ; preds = %54
  %63 = load i8*, i8** %3, align 8
  %64 = load i32, i32* %6, align 4
  %65 = sext i32 %64 to i64
  %66 = getelementptr inbounds i8, i8* %63, i64 %65
  %67 = load i8, i8* %66, align 1
  %68 = sext i8 %67 to i32
  %69 = icmp sge i32 %68, 65
  br i1 %69, label %70, label %71

70:                                               ; preds = %62
  store i32 1, i32* %5, align 4
  br label %90

71:                                               ; preds = %62, %54
  %72 = load i8*, i8** %3, align 8
  %73 = load i32, i32* %6, align 4
  %74 = sext i32 %73 to i64
  %75 = getelementptr inbounds i8, i8* %72, i64 %74
  %76 = load i8, i8* %75, align 1
  %77 = sext i8 %76 to i32
  %78 = icmp sle i32 %77, 57
  br i1 %78, label %79, label %88

79:                                               ; preds = %71
  %80 = load i8*, i8** %3, align 8
  %81 = load i32, i32* %6, align 4
  %82 = sext i32 %81 to i64
  %83 = getelementptr inbounds i8, i8* %80, i64 %82
  %84 = load i8, i8* %83, align 1
  %85 = sext i8 %84 to i32
  %86 = icmp sge i32 %85, 48
  br i1 %86, label %87, label %88

87:                                               ; preds = %79
  store i32 1, i32* %5, align 4
  br label %89

88:                                               ; preds = %79, %71
  store i32 0, i32* %5, align 4
  br label %96

89:                                               ; preds = %87
  br label %90

90:                                               ; preds = %89, %70
  br label %91

91:                                               ; preds = %90, %53
  br label %92

92:                                               ; preds = %91, %36
  br label %93

93:                                               ; preds = %92
  %94 = load i32, i32* %6, align 4
  %95 = add nsw i32 %94, 1
  store i32 %95, i32* %6, align 4
  br label %24

96:                                               ; preds = %88, %24
  br label %268

97:                                               ; preds = %12
  %98 = load i8*, i8** %3, align 8
  %99 = load i8, i8* %98, align 1
  %100 = sext i8 %99 to i32
  %101 = icmp sle i32 %100, 122
  br i1 %101, label %102, label %181

102:                                              ; preds = %97
  %103 = load i8*, i8** %3, align 8
  %104 = load i8, i8* %103, align 1
  %105 = sext i8 %104 to i32
  %106 = icmp sge i32 %105, 97
  br i1 %106, label %107, label %181

107:                                              ; preds = %102
  store i32 1, i32* %5, align 4
  store i32 1, i32* %6, align 4
  br label %108

108:                                              ; preds = %177, %107
  %109 = load i32, i32* %6, align 4
  %110 = load i32, i32* %4, align 4
  %111 = icmp slt i32 %109, %110
  br i1 %111, label %112, label %180

112:                                              ; preds = %108
  %113 = load i8*, i8** %3, align 8
  %114 = load i32, i32* %6, align 4
  %115 = sext i32 %114 to i64
  %116 = getelementptr inbounds i8, i8* %113, i64 %115
  %117 = load i8, i8* %116, align 1
  %118 = sext i8 %117 to i32
  %119 = icmp eq i32 %118, 95
  br i1 %119, label %120, label %121

120:                                              ; preds = %112
  store i32 1, i32* %5, align 4
  br label %176

121:                                              ; preds = %112
  %122 = load i8*, i8** %3, align 8
  %123 = load i32, i32* %6, align 4
  %124 = sext i32 %123 to i64
  %125 = getelementptr inbounds i8, i8* %122, i64 %124
  %126 = load i8, i8* %125, align 1
  %127 = sext i8 %126 to i32
  %128 = icmp sle i32 %127, 122
  br i1 %128, label %129, label %138

129:                                              ; preds = %121
  %130 = load i8*, i8** %3, align 8
  %131 = load i32, i32* %6, align 4
  %132 = sext i32 %131 to i64
  %133 = getelementptr inbounds i8, i8* %130, i64 %132
  %134 = load i8, i8* %133, align 1
  %135 = sext i8 %134 to i32
  %136 = icmp sge i32 %135, 97
  br i1 %136, label %137, label %138

137:                                              ; preds = %129
  store i32 1, i32* %5, align 4
  br label %175

138:                                              ; preds = %129, %121
  %139 = load i8*, i8** %3, align 8
  %140 = load i32, i32* %6, align 4
  %141 = sext i32 %140 to i64
  %142 = getelementptr inbounds i8, i8* %139, i64 %141
  %143 = load i8, i8* %142, align 1
  %144 = sext i8 %143 to i32
  %145 = icmp sle i32 %144, 90
  br i1 %145, label %146, label %155

146:                                              ; preds = %138
  %147 = load i8*, i8** %3, align 8
  %148 = load i32, i32* %6, align 4
  %149 = sext i32 %148 to i64
  %150 = getelementptr inbounds i8, i8* %147, i64 %149
  %151 = load i8, i8* %150, align 1
  %152 = sext i8 %151 to i32
  %153 = icmp sge i32 %152, 65
  br i1 %153, label %154, label %155

154:                                              ; preds = %146
  store i32 1, i32* %5, align 4
  br label %174

155:                                              ; preds = %146, %138
  %156 = load i8*, i8** %3, align 8
  %157 = load i32, i32* %6, align 4
  %158 = sext i32 %157 to i64
  %159 = getelementptr inbounds i8, i8* %156, i64 %158
  %160 = load i8, i8* %159, align 1
  %161 = sext i8 %160 to i32
  %162 = icmp sle i32 %161, 57
  br i1 %162, label %163, label %172

163:                                              ; preds = %155
  %164 = load i8*, i8** %3, align 8
  %165 = load i32, i32* %6, align 4
  %166 = sext i32 %165 to i64
  %167 = getelementptr inbounds i8, i8* %164, i64 %166
  %168 = load i8, i8* %167, align 1
  %169 = sext i8 %168 to i32
  %170 = icmp sge i32 %169, 48
  br i1 %170, label %171, label %172

171:                                              ; preds = %163
  store i32 1, i32* %5, align 4
  br label %173

172:                                              ; preds = %163, %155
  store i32 0, i32* %5, align 4
  br label %180

173:                                              ; preds = %171
  br label %174

174:                                              ; preds = %173, %154
  br label %175

175:                                              ; preds = %174, %137
  br label %176

176:                                              ; preds = %175, %120
  br label %177

177:                                              ; preds = %176
  %178 = load i32, i32* %6, align 4
  %179 = add nsw i32 %178, 1
  store i32 %179, i32* %6, align 4
  br label %108

180:                                              ; preds = %172, %108
  br label %267

181:                                              ; preds = %102, %97
  %182 = load i8*, i8** %3, align 8
  %183 = load i8, i8* %182, align 1
  %184 = sext i8 %183 to i32
  %185 = icmp sle i32 %184, 90
  br i1 %185, label %186, label %265

186:                                              ; preds = %181
  %187 = load i8*, i8** %3, align 8
  %188 = load i8, i8* %187, align 1
  %189 = sext i8 %188 to i32
  %190 = icmp sge i32 %189, 65
  br i1 %190, label %191, label %265

191:                                              ; preds = %186
  store i32 1, i32* %5, align 4
  store i32 1, i32* %6, align 4
  br label %192

192:                                              ; preds = %261, %191
  %193 = load i32, i32* %6, align 4
  %194 = load i32, i32* %4, align 4
  %195 = icmp slt i32 %193, %194
  br i1 %195, label %196, label %264

196:                                              ; preds = %192
  %197 = load i8*, i8** %3, align 8
  %198 = load i32, i32* %6, align 4
  %199 = sext i32 %198 to i64
  %200 = getelementptr inbounds i8, i8* %197, i64 %199
  %201 = load i8, i8* %200, align 1
  %202 = sext i8 %201 to i32
  %203 = icmp eq i32 %202, 95
  br i1 %203, label %204, label %205

204:                                              ; preds = %196
  store i32 1, i32* %5, align 4
  br label %260

205:                                              ; preds = %196
  %206 = load i8*, i8** %3, align 8
  %207 = load i32, i32* %6, align 4
  %208 = sext i32 %207 to i64
  %209 = getelementptr inbounds i8, i8* %206, i64 %208
  %210 = load i8, i8* %209, align 1
  %211 = sext i8 %210 to i32
  %212 = icmp sle i32 %211, 122
  br i1 %212, label %213, label %222

213:                                              ; preds = %205
  %214 = load i8*, i8** %3, align 8
  %215 = load i32, i32* %6, align 4
  %216 = sext i32 %215 to i64
  %217 = getelementptr inbounds i8, i8* %214, i64 %216
  %218 = load i8, i8* %217, align 1
  %219 = sext i8 %218 to i32
  %220 = icmp sge i32 %219, 97
  br i1 %220, label %221, label %222

221:                                              ; preds = %213
  store i32 1, i32* %5, align 4
  br label %259

222:                                              ; preds = %213, %205
  %223 = load i8*, i8** %3, align 8
  %224 = load i32, i32* %6, align 4
  %225 = sext i32 %224 to i64
  %226 = getelementptr inbounds i8, i8* %223, i64 %225
  %227 = load i8, i8* %226, align 1
  %228 = sext i8 %227 to i32
  %229 = icmp sle i32 %228, 90
  br i1 %229, label %230, label %239

230:                                              ; preds = %222
  %231 = load i8*, i8** %3, align 8
  %232 = load i32, i32* %6, align 4
  %233 = sext i32 %232 to i64
  %234 = getelementptr inbounds i8, i8* %231, i64 %233
  %235 = load i8, i8* %234, align 1
  %236 = sext i8 %235 to i32
  %237 = icmp sge i32 %236, 65
  br i1 %237, label %238, label %239

238:                                              ; preds = %230
  store i32 1, i32* %5, align 4
  br label %258

239:                                              ; preds = %230, %222
  %240 = load i8*, i8** %3, align 8
  %241 = load i32, i32* %6, align 4
  %242 = sext i32 %241 to i64
  %243 = getelementptr inbounds i8, i8* %240, i64 %242
  %244 = load i8, i8* %243, align 1
  %245 = sext i8 %244 to i32
  %246 = icmp sle i32 %245, 57
  br i1 %246, label %247, label %256

247:                                              ; preds = %239
  %248 = load i8*, i8** %3, align 8
  %249 = load i32, i32* %6, align 4
  %250 = sext i32 %249 to i64
  %251 = getelementptr inbounds i8, i8* %248, i64 %250
  %252 = load i8, i8* %251, align 1
  %253 = sext i8 %252 to i32
  %254 = icmp sge i32 %253, 48
  br i1 %254, label %255, label %256

255:                                              ; preds = %247
  store i32 1, i32* %5, align 4
  br label %257

256:                                              ; preds = %247, %239
  store i32 0, i32* %5, align 4
  br label %264

257:                                              ; preds = %255
  br label %258

258:                                              ; preds = %257, %238
  br label %259

259:                                              ; preds = %258, %221
  br label %260

260:                                              ; preds = %259, %204
  br label %261

261:                                              ; preds = %260
  %262 = load i32, i32* %6, align 4
  %263 = add nsw i32 %262, 1
  store i32 %263, i32* %6, align 4
  br label %192

264:                                              ; preds = %256, %192
  br label %266

265:                                              ; preds = %186, %181
  store i32 0, i32* %5, align 4
  br label %266

266:                                              ; preds = %265, %264
  br label %267

267:                                              ; preds = %266, %180
  br label %268

268:                                              ; preds = %267, %96
  %269 = load i32, i32* %5, align 4
  %270 = call i32 (i8*, ...) @printf(i8* getelementptr inbounds ([4 x i8], [4 x i8]* @.str, i64 0, i64 0), i32 %269)
  br label %271

271:                                              ; preds = %268
  %272 = load i32, i32* %2, align 4
  %273 = add nsw i32 %272, 1
  store i32 %273, i32* %2, align 4
  br label %8

274:                                              ; preds = %8
  ret void
}

declare dso_local i32 @__isoc99_scanf(i8*, ...) #1

; Function Attrs: nounwind
declare dso_local noalias i8* @malloc(i64) #2

declare dso_local i32 @gets(...) #1

; Function Attrs: nounwind readonly
declare dso_local i64 @strlen(i8*) #3

declare dso_local i32 @printf(i8*, ...) #1


!llvm.module.flags = !{!0}
!llvm.ident = !{!1}

!0 = !{i32 1, !"wchar_size", i32 4}
!1 = !{!"clang version 10.0.0-4ubuntu1 "}
